target datalayout = "e-m:e-p270:32:32-p271:32:32-p272:64:64-i64:64-i128:128-f80:128-n8:16:32:64-S128"
target triple = "x86_64-pc-linux-gnu"

%struct.b2World = type { %struct.b2ArenaAllocator, %struct.b2BroadPhase, %struct.b2ConstraintGraph, %struct.b2IdPool, %struct.b2BodyArray, %struct.b2IdPool, %struct.b2SolverSetArray, %struct.b2IdPool, %struct.b2JointArray, %struct.b2IdPool, %struct.b2ContactArray, %struct.b2IdPool, %struct.b2IslandArray, %struct.b2IdPool, %struct.b2IdPool, %struct.b2ShapeArray, %struct.b2ChainShapeArray, %struct.b2SensorArray, %struct.b2TaskContextArray, %struct.b2SensorTaskContextArray, %struct.b2BodyMoveEventArray, %struct.b2SensorBeginTouchEventArray, %struct.b2ContactBeginTouchEventArray, [2 x %struct.b2SensorEndTouchEventArray], [2 x %struct.b2ContactEndTouchEventArray], i32, %struct.b2ContactHitEventArray, %struct.b2BitSet, %struct.b2BitSet, %struct.b2BitSet, i64, i32, %struct.b2Vec2, float, float, float, float, float, float, float, float, ptr, ptr, i16, %struct.b2Profile, ptr, ptr, ptr, ptr, i32, ptr, ptr, ptr, ptr, ptr, float, i32, i32, i16, i8, i8, i8, i8, i8, i8 }
%struct.b2ArenaAllocator = type { ptr, i32, i32, i32, i32, %struct.b2ArenaEntryArray }
%struct.b2ArenaEntryArray = type { ptr, i32, i32 }
%struct.b2BroadPhase = type { [3 x %struct.b2DynamicTree], i32, %struct.b2HashSet, %struct.b2IntArray, ptr, ptr, i32, %struct.b2AtomicInt, %struct.b2HashSet }
%struct.b2DynamicTree = type { ptr, i32, i32, i32, i32, i32, ptr, ptr, ptr, ptr, i32 }
%struct.b2IntArray = type { ptr, i32, i32 }
%struct.b2AtomicInt = type { i32 }
%struct.b2HashSet = type { ptr, i32, i32 }
%struct.b2ConstraintGraph = type { [12 x %struct.b2GraphColor] }
%struct.b2GraphColor = type { %struct.b2BitSet, %struct.b2ContactSimArray, %struct.b2JointSimArray, %union.anon }
%struct.b2ContactSimArray = type { ptr, i32, i32 }
%struct.b2JointSimArray = type { ptr, i32, i32 }
%union.anon = type { ptr }
%struct.b2BodyArray = type { ptr, i32, i32 }
%struct.b2SolverSetArray = type { ptr, i32, i32 }
%struct.b2JointArray = type { ptr, i32, i32 }
%struct.b2ContactArray = type { ptr, i32, i32 }
%struct.b2IslandArray = type { ptr, i32, i32 }
%struct.b2IdPool = type { %struct.b2IntArray, i32 }
%struct.b2ShapeArray = type { ptr, i32, i32 }
%struct.b2ChainShapeArray = type { ptr, i32, i32 }
%struct.b2SensorArray = type { ptr, i32, i32 }
%struct.b2TaskContextArray = type { ptr, i32, i32 }
%struct.b2SensorTaskContextArray = type { ptr, i32, i32 }
%struct.b2BodyMoveEventArray = type { ptr, i32, i32 }
%struct.b2SensorBeginTouchEventArray = type { ptr, i32, i32 }
%struct.b2ContactBeginTouchEventArray = type { ptr, i32, i32 }
%struct.b2SensorEndTouchEventArray = type { ptr, i32, i32 }
%struct.b2ContactEndTouchEventArray = type { ptr, i32, i32 }
%struct.b2ContactHitEventArray = type { ptr, i32, i32 }
%struct.b2BitSet = type { ptr, i32, i32 }
%struct.b2Vec2 = type { float, float }
%struct.b2Profile = type { float, float, float, float, float, float, float, float, float, float, float, float, float, float, float, float, float, float, float, float, float, float }
%struct.b2WorldId = type { i16, i16 }

@b2_worlds = hidden global [128 x %struct.b2World] zeroinitializer, align 16

; Function Attrs: inlinehint nounwind uwtable
define internal float @b2ClampFloat(float noundef %0, float noundef %1, float noundef %2) #5 {
  %4 = alloca float, align 4
  %5 = alloca float, align 4
  %6 = alloca float, align 4
  store float %0, ptr %4, align 4, !tbaa !124
  store float %1, ptr %5, align 4, !tbaa !124
  store float %2, ptr %6, align 4, !tbaa !124
  %7 = load float, ptr %4, align 4, !tbaa !124
  %8 = load float, ptr %5, align 4, !tbaa !124
  %9 = fcmp olt float %7, %8
  br i1 %9, label %10, label %12

10:                                               ; preds = %3
  %11 = load float, ptr %5, align 4, !tbaa !124
  br label %22

12:                                               ; preds = %3
  %13 = load float, ptr %4, align 4, !tbaa !124
  %14 = load float, ptr %6, align 4, !tbaa !124
  %15 = fcmp ogt float %13, %14
  br i1 %15, label %16, label %18

16:                                               ; preds = %12
  %17 = load float, ptr %6, align 4, !tbaa !124
  br label %20

18:                                               ; preds = %12
  %19 = load float, ptr %4, align 4, !tbaa !124
  br label %20

20:                                               ; preds = %18, %16
  %21 = phi float [ %17, %16 ], [ %19, %18 ]
  br label %22

22:                                               ; preds = %20, %10
  %23 = phi float [ %11, %10 ], [ %21, %20 ]
  ret float %23
}

; Function Attrs: nounwind uwtable
define hidden ptr @b2GetWorldFromId(i32 %0) #0 {
  %2 = alloca %struct.b2WorldId, align 2
  %3 = alloca ptr, align 8
  store i32 %0, ptr %2, align 2
  call void @llvm.lifetime.start.p0(i64 8, ptr %3) #10
  %4 = getelementptr inbounds nuw %struct.b2WorldId, ptr %2, i32 0, i32 0
  %5 = load i16, ptr %4, align 2, !tbaa !44
  %6 = zext i16 %5 to i32
  %7 = sub nsw i32 %6, 1
  %8 = sext i32 %7 to i64
  %9 = getelementptr inbounds %struct.b2World, ptr @b2_worlds, i64 %8
  store ptr %9, ptr %3, align 8, !tbaa !47
  %10 = load ptr, ptr %3, align 8, !tbaa !47
  call void @llvm.lifetime.end.p0(i64 8, ptr %3) #10
  ret ptr %10
}

; Function Attrs: nounwind uwtable
define void @b2World_SetContactTuning(i32 %0, float noundef %1, float noundef %2, float noundef %3) #0 {
  %5 = alloca %struct.b2WorldId, align 2
  %6 = alloca float, align 4
  %7 = alloca float, align 4
  %8 = alloca float, align 4
  %9 = alloca ptr, align 8
  %10 = alloca i32, align 4
  store i32 %0, ptr %5, align 2
  store float %1, ptr %6, align 4, !tbaa !124
  store float %2, ptr %7, align 4, !tbaa !124
  store float %3, ptr %8, align 4, !tbaa !124
  call void @llvm.lifetime.start.p0(i64 8, ptr %9) #10
  %11 = load i32, ptr %5, align 2
  %12 = call ptr @b2GetWorldFromId(i32 %11)
  store ptr %12, ptr %9, align 8, !tbaa !47
  %13 = load ptr, ptr %9, align 8, !tbaa !47
  %14 = getelementptr inbounds nuw %struct.b2World, ptr %13, i32 0, i32 60
  %15 = load i8, ptr %14, align 1, !tbaa !49, !range !90, !noundef !91
  %16 = trunc i8 %15 to i1
  br i1 %16, label %17, label %18

17:                                               ; preds = %4
  store i32 1, ptr %10, align 4
  br label %31

18:                                               ; preds = %4
  %19 = load float, ptr %6, align 4, !tbaa !124
  %20 = call float @b2ClampFloat(float noundef %19, float noundef 0.000000e+00, float noundef 0x47EFFFFFE0000000)
  %21 = load ptr, ptr %9, align 8, !tbaa !47
  %22 = getelementptr inbounds nuw %struct.b2World, ptr %21, i32 0, i32 37
  store float %20, ptr %22, align 4, !tbaa !173
  %23 = load float, ptr %7, align 4, !tbaa !124
  %24 = call float @b2ClampFloat(float noundef %23, float noundef 0.000000e+00, float noundef 0x47EFFFFFE0000000)
  %25 = load ptr, ptr %9, align 8, !tbaa !47
  %26 = getelementptr inbounds nuw %struct.b2World, ptr %25, i32 0, i32 38
  store float %24, ptr %26, align 8, !tbaa !175
  %27 = load float, ptr %8, align 4, !tbaa !124
  %28 = call float @b2ClampFloat(float noundef %27, float noundef 0.000000e+00, float noundef 0x47EFFFFFE0000000)
  %29 = load ptr, ptr %9, align 8, !tbaa !47
  %30 = getelementptr inbounds nuw %struct.b2World, ptr %29, i32 0, i32 36
  store float %28, ptr %30, align 8, !tbaa !171
  store i32 0, ptr %10, align 4
  br label %31

31:                                               ; preds = %18, %17
  call void @llvm.lifetime.end.p0(i64 8, ptr %9) #10
  %32 = load i32, ptr %10, align 4
  switch i32 %32, label %34 [
    i32 0, label %33
    i32 1, label %33
  ]

33:                                               ; preds = %31, %31
  ret void

34:                                               ; preds = %31
  unreachable
}