; Function Attrs: mustprogress nofree norecurse nosync nounwind willreturn memory(readwrite, argmem: none, inaccessiblemem: none) uwtable
define void @b2World_SetContactTuning(i32 %0, float noundef %1, float noundef %2, float noundef %3) local_unnamed_addr #12 {
  %5 = and i32 %0, 65535
  %6 = zext nneg i32 %5 to i64
  %7 = getelementptr %struct.b2World, ptr @b2_worlds, i64 %6
  %8 = getelementptr i8, ptr %7, i64 -9
  %9 = load i8, ptr %8, align 1, !tbaa !35, !range !77, !noundef !78
  %10 = trunc nuw i8 %9 to i1
  br i1 %10, label %27, label %11

11:                                               ; preds = %4
  %12 = fcmp olt float %1, 0.000000e+00
  %13 = fcmp ogt float %1, 0x47EFFFFFE0000000
  %14 = select i1 %13, float 0x47EFFFFFE0000000, float %1
  %15 = select i1 %12, float 0.000000e+00, float %14
  %16 = getelementptr i8, ptr %7, i64 -236
  store float %15, ptr %16, align 4, !tbaa !122
  %17 = fcmp olt float %2, 0.000000e+00
  %18 = fcmp ogt float %2, 0x47EFFFFFE0000000
  %19 = select i1 %18, float 0x47EFFFFFE0000000, float %2
  %20 = select i1 %17, float 0.000000e+00, float %19
  %21 = getelementptr i8, ptr %7, i64 -232
  store float %20, ptr %21, align 8, !tbaa !124
  %22 = fcmp olt float %3, 0.000000e+00
  %23 = fcmp ogt float %3, 0x47EFFFFFE0000000
  %24 = select i1 %23, float 0x47EFFFFFE0000000, float %3
  %25 = select i1 %22, float 0.000000e+00, float %24
  %26 = getelementptr i8, ptr %7, i64 -240
  store float %25, ptr %26, align 16, !tbaa !120
  br label %27

27:                                               ; preds = %4, %11
  ret void
}